; Function Attrs: mustprogress uwtable
define internal fastcc noundef ptr @_ZN12_GLOBAL__N_116GetTrackerHandleEPv(ptr noundef readnone returned captures(address_is_null, ret: address, provenance) %0) unnamed_addr #3 personality ptr @__gxx_personality_v0 {
  %2 = alloca %"class.dmlc::LogMessageFatal", align 1
  %3 = alloca %"class.dmlc::LogMessageFatal", align 1
  %.not = icmp eq ptr %0, null
  br i1 %.not, label %4, label %.critedge, !prof !71

4:                                                ; preds = %1
  call void @llvm.lifetime.start.p0(i64 1, ptr nonnull %2) #16
  %5 = call noundef nonnull align 8 dereferenceable(376) ptr @_ZN4dmlc15LogMessageFatal8GetEntryEv(ptr noundef nonnull align 1 dereferenceable(1) %2)
  call void @_ZN4dmlc15LogMessageFatal5Entry4InitEPKci(ptr noundef nonnull align 8 dereferenceable(376) %5, ptr noundef nonnull @.str, i32 noundef 65)
  %6 = invoke noundef nonnull align 8 dereferenceable(376) ptr @_ZN4dmlc15LogMessageFatal8GetEntryEv(ptr noundef nonnull align 1 dereferenceable(1) %2)
          to label %_ZN4dmlc15LogMessageFatal6streamB5cxx11Ev.exit unwind label %9

_ZN4dmlc15LogMessageFatal6streamB5cxx11Ev.exit:   ; preds = %4
  %7 = invoke noundef nonnull align 8 dereferenceable(8) ptr @_ZSt16__ostream_insertIcSt11char_traitsIcEERSt13basic_ostreamIT_T0_ES6_PKS3_l(ptr noundef nonnull align 8 dereferenceable(8) %6, ptr noundef nonnull @.str.1, i64 noundef 26)
          to label %_ZStlsISt11char_traitsIcEERSt13basic_ostreamIcT_ES5_PKc.exit unwind label %9

_ZStlsISt11char_traitsIcEERSt13basic_ostreamIcT_ES5_PKc.exit: ; preds = %_ZN4dmlc15LogMessageFatal6streamB5cxx11Ev.exit
  %8 = invoke noundef nonnull align 8 dereferenceable(8) ptr @_ZSt16__ostream_insertIcSt11char_traitsIcEERSt13basic_ostreamIT_T0_ES6_PKS3_l(ptr noundef nonnull align 8 dereferenceable(8) %6, ptr noundef nonnull @.str.7, i64 noundef 6)
          to label %12 unwind label %9

9:                                                ; preds = %_ZStlsISt11char_traitsIcEERSt13basic_ostreamIcT_ES5_PKc.exit, %_ZN4dmlc15LogMessageFatal6streamB5cxx11Ev.exit, %4
  %10 = landingpad { ptr, i32 }
          cleanup
  invoke void @_ZN4dmlc15LogMessageFatalD2Ev(ptr noundef nonnull align 1 dereferenceable(1) %2)
          to label %11 unwind label %21

11:                                               ; preds = %9
  call void @llvm.lifetime.end.p0(i64 1, ptr nonnull %2) #16
  br label %20

12:                                               ; preds = %_ZStlsISt11char_traitsIcEERSt13basic_ostreamIcT_ES5_PKc.exit
  call void @_ZN4dmlc15LogMessageFatalD2Ev(ptr noundef nonnull align 1 dereferenceable(1) %2)
  call void @llvm.lifetime.end.p0(i64 1, ptr nonnull %2) #16
  call void @llvm.lifetime.start.p0(i64 1, ptr nonnull %3) #16
  %13 = call noundef nonnull align 8 dereferenceable(376) ptr @_ZN4dmlc15LogMessageFatal8GetEntryEv(ptr noundef nonnull align 1 dereferenceable(1) %3)
  call void @_ZN4dmlc15LogMessageFatal5Entry4InitEPKci(ptr noundef nonnull align 8 dereferenceable(376) %13, ptr noundef nonnull @.str, i32 noundef 67)
  %14 = invoke noundef nonnull align 8 dereferenceable(376) ptr @_ZN4dmlc15LogMessageFatal8GetEntryEv(ptr noundef nonnull align 1 dereferenceable(1) %3)
          to label %_ZN4dmlc15LogMessageFatal6streamB5cxx11Ev.exit8 unwind label %17

_ZN4dmlc15LogMessageFatal6streamB5cxx11Ev.exit8:  ; preds = %12
  %15 = invoke noundef nonnull align 8 dereferenceable(8) ptr @_ZSt16__ostream_insertIcSt11char_traitsIcEERSt13basic_ostreamIT_T0_ES6_PKS3_l(ptr noundef nonnull align 8 dereferenceable(8) %14, ptr noundef nonnull @.str.51, i64 noundef 17)
          to label %_ZStlsISt11char_traitsIcEERSt13basic_ostreamIcT_ES5_PKc.exit9 unwind label %17

_ZStlsISt11char_traitsIcEERSt13basic_ostreamIcT_ES5_PKc.exit9: ; preds = %_ZN4dmlc15LogMessageFatal6streamB5cxx11Ev.exit8
  %16 = invoke noundef nonnull align 8 dereferenceable(8) ptr @_ZSt16__ostream_insertIcSt11char_traitsIcEERSt13basic_ostreamIT_T0_ES6_PKS3_l(ptr noundef nonnull align 8 dereferenceable(8) %14, ptr noundef nonnull @.str.10, i64 noundef 2)
          to label %_ZStlsISt11char_traitsIcEERSt13basic_ostreamIcT_ES5_PKc.exit10 unwind label %17

_ZStlsISt11char_traitsIcEERSt13basic_ostreamIcT_ES5_PKc.exit10: ; preds = %_ZStlsISt11char_traitsIcEERSt13basic_ostreamIcT_ES5_PKc.exit9
  call void @_ZN4dmlc15LogMessageFatalD2Ev(ptr noundef nonnull align 1 dereferenceable(1) %3)
  call void @llvm.lifetime.end.p0(i64 1, ptr nonnull %3) #16
  br label %.critedge

17:                                               ; preds = %_ZStlsISt11char_traitsIcEERSt13basic_ostreamIcT_ES5_PKc.exit9, %_ZN4dmlc15LogMessageFatal6streamB5cxx11Ev.exit8, %12
  %18 = landingpad { ptr, i32 }
          cleanup
  invoke void @_ZN4dmlc15LogMessageFatalD2Ev(ptr noundef nonnull align 1 dereferenceable(1) %3)
          to label %19 unwind label %21

19:                                               ; preds = %17
  call void @llvm.lifetime.end.p0(i64 1, ptr nonnull %3) #16
  br label %20

.critedge:                                        ; preds = %1, %_ZStlsISt11char_traitsIcEERSt13basic_ostreamIcT_ES5_PKc.exit10
  ret ptr %0

20:                                               ; preds = %19, %11
  %.pn = phi { ptr, i32 } [ %18, %19 ], [ %10, %11 ]
  resume { ptr, i32 } %.pn

21:                                               ; preds = %17, %9
  %22 = landingpad { ptr, i32 }
          catch ptr null
  %23 = extractvalue { ptr, i32 } %22, 0
  call void @__clang_call_terminate(ptr %23) #31
  unreachable
}